; Function Attrs: nounwind uwtable
define ptr @l_Std_Range_forIn_x27_loop___at___private_Lean_Data_FuzzyMatching_0__Lean_FuzzyMatching_fuzzyMatchCore___spec__3___boxed(ptr noundef %0, ptr noundef %1, ptr noundef %2, ptr noundef %3, ptr noundef %4, ptr noundef %5, ptr noundef %6, ptr noundef %7, ptr noundef %8, ptr noundef %9, ptr noundef %10, ptr noundef %11, ptr noundef %12, ptr noundef readnone captures(none) %13, ptr noundef readnone captures(none) %14) local_unnamed_addr #0 {
  %16 = tail call ptr @l_Std_Range_forIn_x27_loop___at___private_Lean_Data_FuzzyMatching_0__Lean_FuzzyMatching_fuzzyMatchCore___spec__3(ptr noundef %0, ptr noundef %1, ptr noundef %2, ptr noundef %3, ptr noundef %4, ptr noundef %5, ptr noundef %6, ptr noundef %7, ptr noundef %8, ptr poison, ptr noundef %10, ptr noundef %11, ptr noundef %12, ptr poison, ptr poison)
  %17 = ptrtoint ptr %10 to i64
  %18 = and i64 %17, 1
  %.not = icmp eq i64 %18, 0
  br i1 %.not, label %19, label %lean_dec.exit34

19:                                               ; preds = %15
  %20 = load i32, ptr %10, align 4, !tbaa !5
  %21 = icmp sgt i32 %20, 1
  br i1 %21, label %22, label %24, !prof !10

22:                                               ; preds = %19
  %23 = add nsw i32 %20, -1
  store i32 %23, ptr %10, align 4, !tbaa !5
  br label %lean_dec.exit34

24:                                               ; preds = %19
  %.not.i = icmp eq i32 %20, 0
  br i1 %.not.i, label %lean_dec.exit34, label %25

25:                                               ; preds = %24
  tail call void @lean_dec_ref_cold(ptr noundef nonnull %10) #7
  br label %lean_dec.exit34

lean_dec.exit34:                                  ; preds = %25, %24, %22, %15
  %26 = ptrtoint ptr %9 to i64
  %27 = and i64 %26, 1
  %.not53 = icmp eq i64 %27, 0
  br i1 %.not53, label %28, label %lean_dec.exit33

28:                                               ; preds = %lean_dec.exit34
  %29 = load i32, ptr %9, align 4, !tbaa !5
  %30 = icmp sgt i32 %29, 1
  br i1 %30, label %31, label %33, !prof !10

31:                                               ; preds = %28
  %32 = add nsw i32 %29, -1
  store i32 %32, ptr %9, align 4, !tbaa !5
  br label %lean_dec.exit33

33:                                               ; preds = %28
  %.not.i35 = icmp eq i32 %29, 0
  br i1 %.not.i35, label %lean_dec.exit33, label %34

34:                                               ; preds = %33
  tail call void @lean_dec_ref_cold(ptr noundef nonnull %9) #7
  br label %lean_dec.exit33

lean_dec.exit33:                                  ; preds = %34, %33, %31, %lean_dec.exit34
  %35 = ptrtoint ptr %8 to i64
  %36 = and i64 %35, 1
  %.not54 = icmp eq i64 %36, 0
  br i1 %.not54, label %37, label %lean_dec.exit32

37:                                               ; preds = %lean_dec.exit33
  %38 = load i32, ptr %8, align 4, !tbaa !5
  %39 = icmp sgt i32 %38, 1
  br i1 %39, label %40, label %42, !prof !10

40:                                               ; preds = %37
  %41 = add nsw i32 %38, -1
  store i32 %41, ptr %8, align 4, !tbaa !5
  br label %lean_dec.exit32

42:                                               ; preds = %37
  %.not.i37 = icmp eq i32 %38, 0
  br i1 %.not.i37, label %lean_dec.exit32, label %43

43:                                               ; preds = %42
  tail call void @lean_dec_ref_cold(ptr noundef nonnull %8) #7
  br label %lean_dec.exit32

lean_dec.exit32:                                  ; preds = %43, %42, %40, %lean_dec.exit33
  %44 = ptrtoint ptr %7 to i64
  %45 = and i64 %44, 1
  %.not55 = icmp eq i64 %45, 0
  br i1 %.not55, label %46, label %lean_dec.exit31

46:                                               ; preds = %lean_dec.exit32
  %47 = load i32, ptr %7, align 4, !tbaa !5
  %48 = icmp sgt i32 %47, 1
  br i1 %48, label %49, label %51, !prof !10

49:                                               ; preds = %46
  %50 = add nsw i32 %47, -1
  store i32 %50, ptr %7, align 4, !tbaa !5
  br label %lean_dec.exit31

51:                                               ; preds = %46
  %.not.i39 = icmp eq i32 %47, 0
  br i1 %.not.i39, label %lean_dec.exit31, label %52

52:                                               ; preds = %51
  tail call void @lean_dec_ref_cold(ptr noundef nonnull %7) #7
  br label %lean_dec.exit31

lean_dec.exit31:                                  ; preds = %52, %51, %49, %lean_dec.exit32
  %53 = ptrtoint ptr %5 to i64
  %54 = and i64 %53, 1
  %.not56 = icmp eq i64 %54, 0
  br i1 %.not56, label %55, label %lean_dec.exit30

55:                                               ; preds = %lean_dec.exit31
  %56 = load i32, ptr %5, align 4, !tbaa !5
  %57 = icmp sgt i32 %56, 1
  br i1 %57, label %58, label %60, !prof !10

58:                                               ; preds = %55
  %59 = add nsw i32 %56, -1
  store i32 %59, ptr %5, align 4, !tbaa !5
  br label %lean_dec.exit30

60:                                               ; preds = %55
  %.not.i41 = icmp eq i32 %56, 0
  br i1 %.not.i41, label %lean_dec.exit30, label %61

61:                                               ; preds = %60
  tail call void @lean_dec_ref_cold(ptr noundef nonnull %5) #7
  br label %lean_dec.exit30

lean_dec.exit30:                                  ; preds = %61, %60, %58, %lean_dec.exit31
  %62 = ptrtoint ptr %4 to i64
  %63 = and i64 %62, 1
  %.not57 = icmp eq i64 %63, 0
  br i1 %.not57, label %64, label %lean_dec.exit29

64:                                               ; preds = %lean_dec.exit30
  %65 = load i32, ptr %4, align 4, !tbaa !5
  %66 = icmp sgt i32 %65, 1
  br i1 %66, label %67, label %69, !prof !10

67:                                               ; preds = %64
  %68 = add nsw i32 %65, -1
  store i32 %68, ptr %4, align 4, !tbaa !5
  br label %lean_dec.exit29

69:                                               ; preds = %64
  %.not.i43 = icmp eq i32 %65, 0
  br i1 %.not.i43, label %lean_dec.exit29, label %70

70:                                               ; preds = %69
  tail call void @lean_dec_ref_cold(ptr noundef nonnull %4) #7
  br label %lean_dec.exit29

lean_dec.exit29:                                  ; preds = %70, %69, %67, %lean_dec.exit30
  %71 = ptrtoint ptr %3 to i64
  %72 = and i64 %71, 1
  %.not58 = icmp eq i64 %72, 0
  br i1 %.not58, label %73, label %lean_dec.exit28

73:                                               ; preds = %lean_dec.exit29
  %74 = load i32, ptr %3, align 4, !tbaa !5
  %75 = icmp sgt i32 %74, 1
  br i1 %75, label %76, label %78, !prof !10

76:                                               ; preds = %73
  %77 = add nsw i32 %74, -1
  store i32 %77, ptr %3, align 4, !tbaa !5
  br label %lean_dec.exit28

78:                                               ; preds = %73
  %.not.i45 = icmp eq i32 %74, 0
  br i1 %.not.i45, label %lean_dec.exit28, label %79

79:                                               ; preds = %78
  tail call void @lean_dec_ref_cold(ptr noundef nonnull %3) #7
  br label %lean_dec.exit28

lean_dec.exit28:                                  ; preds = %79, %78, %76, %lean_dec.exit29
  %80 = ptrtoint ptr %2 to i64
  %81 = and i64 %80, 1
  %.not59 = icmp eq i64 %81, 0
  br i1 %.not59, label %82, label %lean_dec.exit27

82:                                               ; preds = %lean_dec.exit28
  %83 = load i32, ptr %2, align 4, !tbaa !5
  %84 = icmp sgt i32 %83, 1
  br i1 %84, label %85, label %87, !prof !10

85:                                               ; preds = %82
  %86 = add nsw i32 %83, -1
  store i32 %86, ptr %2, align 4, !tbaa !5
  br label %lean_dec.exit27

87:                                               ; preds = %82
  %.not.i47 = icmp eq i32 %83, 0
  br i1 %.not.i47, label %lean_dec.exit27, label %88

88:                                               ; preds = %87
  tail call void @lean_dec_ref_cold(ptr noundef nonnull %2) #7
  br label %lean_dec.exit27

lean_dec.exit27:                                  ; preds = %88, %87, %85, %lean_dec.exit28
  %89 = ptrtoint ptr %1 to i64
  %90 = and i64 %89, 1
  %.not60 = icmp eq i64 %90, 0
  br i1 %.not60, label %91, label %lean_dec.exit26

91:                                               ; preds = %lean_dec.exit27
  %92 = load i32, ptr %1, align 4, !tbaa !5
  %93 = icmp sgt i32 %92, 1
  br i1 %93, label %94, label %96, !prof !10

94:                                               ; preds = %91
  %95 = add nsw i32 %92, -1
  store i32 %95, ptr %1, align 4, !tbaa !5
  br label %lean_dec.exit26

96:                                               ; preds = %91
  %.not.i49 = icmp eq i32 %92, 0
  br i1 %.not.i49, label %lean_dec.exit26, label %97

97:                                               ; preds = %96
  tail call void @lean_dec_ref_cold(ptr noundef nonnull %1) #7
  br label %lean_dec.exit26

lean_dec.exit26:                                  ; preds = %97, %96, %94, %lean_dec.exit27
  %98 = ptrtoint ptr %0 to i64
  %99 = and i64 %98, 1
  %.not61 = icmp eq i64 %99, 0
  br i1 %.not61, label %100, label %lean_dec.exit

100:                                              ; preds = %lean_dec.exit26
  %101 = load i32, ptr %0, align 4, !tbaa !5
  %102 = icmp sgt i32 %101, 1
  br i1 %102, label %103, label %105, !prof !10

103:                                              ; preds = %100
  %104 = add nsw i32 %101, -1
  store i32 %104, ptr %0, align 4, !tbaa !5
  br label %lean_dec.exit

105:                                              ; preds = %100
  %.not.i51 = icmp eq i32 %101, 0
  br i1 %.not.i51, label %lean_dec.exit, label %106

106:                                              ; preds = %105
  tail call void @lean_dec_ref_cold(ptr noundef nonnull %0) #7
  br label %lean_dec.exit

lean_dec.exit:                                    ; preds = %106, %105, %103, %lean_dec.exit26
  ret ptr %16
}